Certificate:
    Data:
        Version: 3 (0x2)
        Serial Number: 4 (0x4)
    Signature Algorithm: sha1WithRSAEncryption
        Issuer: C=CL, ST=Region Metropolitana, L=Santiago, O=2Tec Chile, OU=Sistemas, CN=2Tec Chile CA/emailAddress=certificacionssl@2tec.cl
        Validity
            Not Before: Jul 31 22:30:21 2017 GMT
            Not After : Jul 31 22:30:21 2018 GMT
        Subject: C=CL, ST=Region Metropolitana, L=Santiago, O=Login y Cobranzas, OU=Sistemas Financieros, CN=198.37.116.225/emailAddress=apilyc@2tec.cl
        Subject Public Key Info:
            Public Key Algorithm: rsaEncryption
                Public-Key: (2048 bit)
                Modulus:
                    00:c0:d9:1f:62:38:fc:e6:fc:fa:d8:7c:12:2e:02:
                    8a:f1:84:39:09:b6:e4:c5:b6:7f:3e:c3:0e:62:1e:
                    e0:f4:7a:e8:39:35:98:ad:e8:de:d7:06:7d:f3:5c:
                    77:31:17:0d:53:0b:77:b7:8a:b7:de:63:20:08:e7:
                    96:7e:f5:ce:8b:34:bd:4d:49:a1:ea:fd:4f:05:3b:
                    9e:f4:55:33:79:03:51:44:d3:51:61:34:2d:75:9b:
                    3c:3c:6a:20:9b:6f:15:f0:2a:f8:f4:bf:9a:30:25:
                    ce:f6:4a:f5:15:e2:a0:cc:ea:e4:b1:9e:5d:fd:ef:
                    cc:73:07:a7:32:3d:0c:4b:ce:c2:bc:b8:d1:e4:0e:
                    b3:4b:a3:fd:1e:3b:d4:ff:03:99:ad:12:fd:26:55:
                    7a:61:26:27:6e:ee:2d:0a:70:99:67:23:e1:84:3b:
                    30:5b:92:55:a3:33:0a:96:d1:27:c1:8f:fe:1b:3b:
                    d9:19:97:d4:c3:0c:10:74:52:08:9e:38:69:42:df:
                    f5:0e:dd:24:e4:10:73:7d:92:e5:f0:c7:ce:9b:ae:
                    99:ac:49:84:2c:35:09:9b:a2:86:28:28:ec:85:66:
                    75:70:70:ac:b3:37:24:23:93:4e:2a:44:47:64:d5:
                    a2:d6:50:74:d6:ec:ea:2b:b9:70:0e:55:57:bd:16:
                    ff:57
                Exponent: 65537 (0x10001)
        X509v3 extensions:
            X509v3 Basic Constraints: 
                CA:FALSE
            Netscape Comment: 
                OpenSSL Generated Certificate
            X509v3 Subject Key Identifier: 
                65:55:67:FB:C6:B5:08:A5:F6:D4:94:2F:F7:89:28:21:E5:C8:79:58
            X509v3 Authority Key Identifier: 
                keyid:42:36:75:C3:D7:12:39:2E:34:3C:09:FA:E2:07:E5:64:E4:A3:87:FA
                DirName:/C=CL/ST=Region Metropolitana/L=Santiago/O=2Tec Chile/OU=Sistemas/CN=2Tec Chile CA/emailAddress=certificacionssl@2tec.cl
                serial:80:0D:65:86:35:C1:6E:DC

    Signature Algorithm: sha1WithRSAEncryption
         3d:16:35:0d:e0:56:c7:de:f9:09:d5:7e:5c:12:9e:ff:7a:d2:
         de:5f:27:4b:47:9e:88:7d:a0:84:c3:68:48:fd:a5:63:89:d3:
         94:a3:cd:3a:77:02:ad:b5:0c:a1:a3:34:ec:61:0a:3f:a8:7d:
         c2:d4:2b:ec:be:39:ef:f3:69:7f:2c:80:53:cb:5a:13:7f:43:
         b7:69:3d:57:16:db:0f:c1:c3:ee:89:3a:e7:dc:53:c7:34:ba:
         3d:cd:11:04:aa:6c:43:26:f5:8f:fb:c2:c8:ed:68:c6:55:3f:
         d6:05:ec:8a:b7:b5:63:5e:ae:10:e5:10:11:45:ff:df:94:c2:
         80:a4:fc:9c:63:46:be:d5:17:af:33:f4:03:9b:ff:c6:14:4a:
         a7:67:d7:fc:ed:32:d8:2e:29:25:d6:a6:43:9b:48:4a:7f:ae:
         e7:f1:73:ed:cf:a7:4c:c6:8b:4a:0a:ce:64:ec:ba:e2:80:f4:
         61:37:a8:2e:b7:bb:3a:a1:f8:0c:b1:02:76:4d:f3:73:59:9a:
         07:11:13:50:76:e7:60:e9:56:6d:44:40:3a:f9:b1:07:af:85:
         ea:8b:45:45:93:f5:b7:3e:35:1c:16:be:9d:3e:14:fb:c5:ba:
         1b:cc:ac:bc:5e:ba:c7:cb:c7:f8:ff:dd:c3:fa:94:33:91:22:
         3e:68:23:e9
-----BEGIN CERTIFICATE-----
MIIFFTCCA/2gAwIBAgIBBDANBgkqhkiG9w0BAQUFADCBqDELMAkGA1UEBhMCQ0wx
HTAbBgNVBAgTFFJlZ2lvbiBNZXRyb3BvbGl0YW5hMREwDwYDVQQHEwhTYW50aWFn
bzETMBEGA1UEChMKMlRlYyBDaGlsZTERMA8GA1UECxMIU2lzdGVtYXMxFjAUBgNV
BAMTDTJUZWMgQ2hpbGUgQ0ExJzAlBgkqhkiG9w0BCQEWGGNlcnRpZmljYWNpb25z
c2xAMnRlYy5jbDAeFw0xNzA3MzEyMjMwMjFaFw0xODA3MzEyMjMwMjFaMIGyMQsw
CQYDVQQGEwJDTDEdMBsGA1UECBMUUmVnaW9uIE1ldHJvcG9saXRhbmExETAPBgNV
BAcTCFNhbnRpYWdvMRowGAYDVQQKExFMb2dpbiB5IENvYnJhbnphczEdMBsGA1UE
CxMUU2lzdGVtYXMgRmluYW5jaWVyb3MxFzAVBgNVBAMTDjE5OC4zNy4xMTYuMjI1
MR0wGwYJKoZIhvcNAQkBFg5hcGlseWNAMnRlYy5jbDCCASIwDQYJKoZIhvcNAQEB
BQADggEPADCCAQoCggEBAMDZH2I4/Ob8+th8Ei4CivGEOQm25MW2fz7DDmIe4PR6
6Dk1mK3o3tcGffNcdzEXDVMLd7eKt95jIAjnln71zos0vU1Joer9TwU7nvRVM3kD
UUTTUWE0LXWbPDxqIJtvFfAq+PS/mjAlzvZK9RXioMzq5LGeXf3vzHMHpzI9DEvO
wry40eQOs0uj/R471P8Dma0S/SZVemEmJ27uLQpwmWcj4YQ7MFuSVaMzCpbRJ8GP
/hs72RmX1MMMEHRSCJ44aULf9Q7dJOQQc32S5fDHzpuumaxJhCw1CZuihigo7IVm
dXBwrLM3JCOTTipER2TVotZQdNbs6iu5cA5VV70W/1cCAwEAAaOCATwwggE4MAkG
A1UdEwQCMAAwLAYJYIZIAYb4QgENBB8WHU9wZW5TU0wgR2VuZXJhdGVkIENlcnRp
ZmljYXRlMB0GA1UdDgQWBBRlVWf7xrUIpfbUlC/3iSgh5ch5WDCB3QYDVR0jBIHV
MIHSgBRCNnXD1xI5LjQ8CfriB+Vk5KOH+qGBrqSBqzCBqDELMAkGA1UEBhMCQ0wx
HTAbBgNVBAgTFFJlZ2lvbiBNZXRyb3BvbGl0YW5hMREwDwYDVQQHEwhTYW50aWFn
bzETMBEGA1UEChMKMlRlYyBDaGlsZTERMA8GA1UECxMIU2lzdGVtYXMxFjAUBgNV
BAMTDTJUZWMgQ2hpbGUgQ0ExJzAlBgkqhkiG9w0BCQEWGGNlcnRpZmljYWNpb25z
c2xAMnRlYy5jbIIJAIANZYY1wW7cMA0GCSqGSIb3DQEBBQUAA4IBAQA9FjUN4FbH
3vkJ1X5cEp7/etLeXydLR56IfaCEw2hI/aVjidOUo806dwKttQyhozTsYQo/qH3C
1Cvsvjnv82l/LIBTy1oTf0O3aT1XFtsPwcPuiTrn3FPHNLo9zREEqmxDJvWP+8LI
7WjGVT/WBeyKt7VjXq4Q5RARRf/flMKApPycY0a+1RevM/QDm//GFEqnZ9f87TLY
Likl1qZDm0hKf67n8XPtz6dMxotKCs5k7LrigPRhN6gut7s6ofgMsQJ2TfNzWZoH
ERNQdudg6VZtREA6+bEHr4Xqi0VFk/W3PjUcFr6dPhT7xbobzKy8XrrHy8f4/93D
+pQzkSI+aCPp
-----END CERTIFICATE-----
