Certificate:
    Data:
        Version: 3 (0x2)
        Serial Number: 7 (0x7)
        Signature Algorithm: sha1WithRSAEncryption
        Issuer: C=CL, ST=Region Metropolitana, L=Santiago, O=2Tec Chile, OU=Sistemas, CN=2Tec Chile CA/emailAddress=certificacionssl@2tec.cl
        Validity
            Not Before: Dec 10 03:02:01 2017 GMT
            Not After : Dec  5 03:02:01 2037 GMT
        Subject: C=CL, ST=Region Metropolitana, L=Santiago, O=WebApp 2Te Administracion, OU=Sistemas 2Tec Chile, CN=WebApp-2Tec-Administracion/emailAddress=administracion@2tec.cl
        Subject Public Key Info:
            Public Key Algorithm: rsaEncryption
            RSA Public Key: (2048 bit)
                Modulus (2048 bit):
                    00:ed:59:e2:c1:5c:4c:46:68:40:69:8f:71:40:c0:
                    54:a1:ce:5b:ae:f1:05:54:64:93:25:7c:50:5d:46:
                    be:6f:49:6a:6c:bf:58:2b:6f:4c:f8:f4:05:a3:2b:
                    2c:96:b6:1c:73:20:07:f2:40:02:cd:50:5c:48:f9:
                    5e:dd:0e:94:24:ce:fc:f8:77:9c:1c:52:7f:12:b8:
                    b6:e5:22:ef:bf:80:92:4b:3c:93:ce:b9:97:7f:b2:
                    5f:f0:7e:ff:eb:57:09:c8:93:14:07:16:11:b9:3e:
                    7f:8b:42:f6:40:6f:b1:91:88:c3:26:90:47:df:92:
                    fa:d8:65:05:ba:ad:ea:93:eb:de:b6:8c:7d:6f:65:
                    9b:ae:67:06:86:5b:9c:2a:68:30:fb:80:cf:1f:47:
                    f9:2d:03:3f:1f:53:69:56:67:13:31:41:1b:2a:16:
                    87:e2:59:d5:93:c7:93:45:c9:3f:13:34:ff:24:5b:
                    08:74:5d:1d:1d:4c:bc:df:a2:6f:02:04:4f:3c:b4:
                    49:a8:6e:51:6c:f1:52:f7:c1:c9:7a:3f:6e:e4:dc:
                    92:a4:dd:8a:dd:42:d4:1e:d5:a2:58:30:4f:b6:aa:
                    00:be:37:7c:13:f8:4d:6c:a7:e4:85:6c:2a:8c:04:
                    86:15:93:02:ba:7b:e6:5a:4b:b7:61:66:07:5b:e9:
                    11:2b
                Exponent: 65537 (0x10001)
        X509v3 extensions:
            X509v3 Basic Constraints: 
                CA:FALSE
            Netscape Comment: 
                OpenSSL Generated Certificate
            X509v3 Subject Key Identifier: 
                0A:E1:49:95:D8:13:4C:11:FC:BF:C5:64:D3:6E:8C:8F:62:5C:1A:F9
            X509v3 Authority Key Identifier: 
                keyid:42:36:75:C3:D7:12:39:2E:34:3C:09:FA:E2:07:E5:64:E4:A3:87:FA
                DirName:/C=CL/ST=Region Metropolitana/L=Santiago/O=2Tec Chile/OU=Sistemas/CN=2Tec Chile CA/emailAddress=certificacionssl@2tec.cl
                serial:80:0D:65:86:35:C1:6E:DC

    Signature Algorithm: sha1WithRSAEncryption
        a2:72:7d:ae:09:ed:76:75:46:33:50:05:c5:ff:93:e6:90:6c:
        d7:2a:7e:33:36:24:b7:68:da:2f:54:c6:9b:ec:4c:f4:2d:e3:
        61:b0:3f:35:fd:3a:22:b4:17:75:84:a2:15:88:b2:c8:3b:8e:
        50:fd:d6:cf:6e:90:30:6d:83:d0:26:f1:1c:41:88:bd:cd:fc:
        b5:b2:36:9a:2b:15:ce:42:23:d5:1f:d6:87:f4:fa:f8:77:50:
        06:ed:48:cb:41:fc:41:db:d0:68:00:f3:75:97:d0:fc:f5:5b:
        43:e6:8d:cb:02:e4:6c:b3:57:9e:3f:aa:9d:0f:f8:32:05:ee:
        2b:3f:84:84:9d:96:77:b5:95:20:1a:c1:50:06:9b:14:16:8a:
        c3:8d:fe:29:5f:61:e8:28:9a:a7:5e:a4:04:ea:a3:32:25:e2:
        b5:66:9f:42:a1:81:d7:ae:a7:94:a7:3a:e4:94:58:90:15:95:
        f8:3c:59:2c:c2:d9:de:5f:9e:89:83:ec:09:ab:0c:61:74:ce:
        38:f6:54:cd:59:27:8b:ad:60:61:b2:f1:03:80:99:97:ce:eb:
        34:64:a8:69:19:40:3b:1f:f5:b4:ae:a3:3e:58:da:75:78:b2:
        dc:5a:78:c2:64:b4:96:57:44:f7:d3:41:50:29:51:6a:de:e4:
        0b:74:0e:22
-----BEGIN CERTIFICATE-----
MIIFMDCCBBigAwIBAgIBBzANBgkqhkiG9w0BAQUFADCBqDELMAkGA1UEBhMCQ0wx
HTAbBgNVBAgTFFJlZ2lvbiBNZXRyb3BvbGl0YW5hMREwDwYDVQQHEwhTYW50aWFn
bzETMBEGA1UEChMKMlRlYyBDaGlsZTERMA8GA1UECxMIU2lzdGVtYXMxFjAUBgNV
BAMTDTJUZWMgQ2hpbGUgQ0ExJzAlBgkqhkiG9w0BCQEWGGNlcnRpZmljYWNpb25z
c2xAMnRlYy5jbDAeFw0xNzEyMTAwMzAyMDFaFw0zNzEyMDUwMzAyMDFaMIHNMQsw
CQYDVQQGEwJDTDEdMBsGA1UECBMUUmVnaW9uIE1ldHJvcG9saXRhbmExETAPBgNV
BAcTCFNhbnRpYWdvMSIwIAYDVQQKExlXZWJBcHAgMlRlIEFkbWluaXN0cmFjaW9u
MRwwGgYDVQQLExNTaXN0ZW1hcyAyVGVjIENoaWxlMSMwIQYDVQQDExpXZWJBcHAt
MlRlYy1BZG1pbmlzdHJhY2lvbjElMCMGCSqGSIb3DQEJARYWYWRtaW5pc3RyYWNp
b25AMnRlYy5jbDCCASIwDQYJKoZIhvcNAQEBBQADggEPADCCAQoCggEBAO1Z4sFc
TEZoQGmPcUDAVKHOW67xBVRkkyV8UF1Gvm9Jamy/WCtvTPj0BaMrLJa2HHMgB/JA
As1QXEj5Xt0OlCTO/Ph3nBxSfxK4tuUi77+Akks8k865l3+yX/B+/+tXCciTFAcW
Ebk+f4tC9kBvsZGIwyaQR9+S+thlBbqt6pPr3raMfW9lm65nBoZbnCpoMPuAzx9H
+S0DPx9TaVZnEzFBGyoWh+JZ1ZPHk0XJPxM0/yRbCHRdHR1MvN+ibwIETzy0Sahu
UWzxUvfByXo/buTckqTdit1C1B7VolgwT7aqAL43fBP4TWyn5IVsKowEhhWTArp7
5lpLt2FmB1vpESsCAwEAAaOCATwwggE4MAkGA1UdEwQCMAAwLAYJYIZIAYb4QgEN
BB8WHU9wZW5TU0wgR2VuZXJhdGVkIENlcnRpZmljYXRlMB0GA1UdDgQWBBQK4UmV
2BNMEfy/xWTTboyPYlwa+TCB3QYDVR0jBIHVMIHSgBRCNnXD1xI5LjQ8CfriB+Vk
5KOH+qGBrqSBqzCBqDELMAkGA1UEBhMCQ0wxHTAbBgNVBAgTFFJlZ2lvbiBNZXRy
b3BvbGl0YW5hMREwDwYDVQQHEwhTYW50aWFnbzETMBEGA1UEChMKMlRlYyBDaGls
ZTERMA8GA1UECxMIU2lzdGVtYXMxFjAUBgNVBAMTDTJUZWMgQ2hpbGUgQ0ExJzAl
BgkqhkiG9w0BCQEWGGNlcnRpZmljYWNpb25zc2xAMnRlYy5jbIIJAIANZYY1wW7c
MA0GCSqGSIb3DQEBBQUAA4IBAQCicn2uCe12dUYzUAXF/5PmkGzXKn4zNiS3aNov
VMab7Ez0LeNhsD81/ToitBd1hKIViLLIO45Q/dbPbpAwbYPQJvEcQYi9zfy1sjaa
KxXOQiPVH9aH9Pr4d1AG7UjLQfxB29BoAPN1l9D89VtD5o3LAuRss1eeP6qdD/gy
Be4rP4SEnZZ3tZUgGsFQBpsUForDjf4pX2HoKJqnXqQE6qMyJeK1Zp9CoYHXrqeU
pzrklFiQFZX4PFkswtneX56Jg+wJqwxhdM449lTNWSeLrWBhsvEDgJmXzus0ZKhp
GUA7H/W0rqM+WNp1eLLcWnjCZLSWV0T300FQKVFq3uQLdA4i
-----END CERTIFICATE-----
